---
triple:          'arm64-apple-darwin'
binary-path:     "/Users/denis-macbook/Desktop/Programko/C++/Úkoly/Zkouska_done/main"
relocations:
  - { offsetInCU: 0xCD9F, offset: 0xCD9F, size: 0x8, addend: 0x0, symName: __ZNSt3__124__put_character_sequenceB7v160006IcNS_11char_traitsIcEEEERNS_13basic_ostreamIT_T0_EES7_PKS4_m, symObjAddr: 0x3E7C, symBinAddr: 0x100005230, symSize: 0x1EC }
  - { offsetInCU: 0xDC18, offset: 0xDC18, size: 0x8, addend: 0x0, symName: __ZNSt3__17advanceB7v160006INS_15__list_iteratorI4BookPvEEllvEEvRT_T0_, symObjAddr: 0x5D40, symBinAddr: 0x1000070F4, symSize: 0x50 }
  - { offsetInCU: 0xEAF9, offset: 0xEAF9, size: 0x8, addend: 0x0, symName: __ZNSt3__14endlB7v160006IcNS_11char_traitsIcEEEERNS_13basic_ostreamIT_T0_EES7_, symObjAddr: 0x544, symBinAddr: 0x1000018F8, symSize: 0x58 }
  - { offsetInCU: 0x10128, offset: 0x10128, size: 0x8, addend: 0x0, symName: __ZNSt3__1lsB7v160006INS_11char_traitsIcEEEERNS_13basic_ostreamIcT_EES6_PKc, symObjAddr: 0x8B8, symBinAddr: 0x100001C6C, symSize: 0x48 }
  - { offsetInCU: 0x10AF3, offset: 0x10AF3, size: 0x8, addend: 0x0, symName: __ZNSt3__17getlineB7v160006IcNS_11char_traitsIcEENS_9allocatorIcEEEERNS_13basic_istreamIT_T0_EES9_RNS_12basic_stringIS6_S7_T1_EES6_, symObjAddr: 0x1130, symBinAddr: 0x1000024E4, symSize: 0x238 }
  - { offsetInCU: 0x10BB1, offset: 0x10BB1, size: 0x8, addend: 0x0, symName: __ZNSt3__1eqB7v160006IcNS_11char_traitsIcEENS_9allocatorIcEEEEbRKNS_12basic_stringIT_T0_T1_EEPKS6_, symObjAddr: 0x1368, symBinAddr: 0x10000271C, symSize: 0x5C }
  - { offsetInCU: 0x10C14, offset: 0x10C14, size: 0x8, addend: 0x0, symName: __ZNSt3__1ltB7v160006ENS_15strong_orderingENS_20_CmpUnspecifiedParamE, symObjAddr: 0x1458, symBinAddr: 0x10000280C, symSize: 0x24 }
  - { offsetInCU: 0x10C4D, offset: 0x10C4D, size: 0x8, addend: 0x0, symName: __ZNSt3__1ssB7v160006IcNS_11char_traitsIcEENS_9allocatorIcEEEEDaRKNS_12basic_stringIT_T0_T1_EESC_, symObjAddr: 0x147C, symBinAddr: 0x100002830, symSize: 0x5C }
  - { offsetInCU: 0x10CC1, offset: 0x10CC1, size: 0x8, addend: 0x0, symName: __ZNSt3__1lsB7v160006IcNS_11char_traitsIcEENS_9allocatorIcEEEERNS_13basic_ostreamIT_T0_EES9_RKNS_12basic_stringIS6_S7_T1_EE, symObjAddr: 0x15D8, symBinAddr: 0x10000298C, symSize: 0x4C }
  - { offsetInCU: 0x11565, offset: 0x11565, size: 0x8, addend: 0x0, symName: __ZNSt3__17getlineB7v160006IcNS_11char_traitsIcEENS_9allocatorIcEEEERNS_13basic_istreamIT_T0_EES9_RNS_12basic_stringIS6_S7_T1_EE, symObjAddr: 0x1A38, symBinAddr: 0x100002DEC, symSize: 0x5C }
  - { offsetInCU: 0x115C8, offset: 0x115C8, size: 0x8, addend: 0x0, symName: __ZNSt3__1eqB7v160006ERKNS_15__list_iteratorI4BookPvEES5_, symObjAddr: 0x1C9C, symBinAddr: 0x100003050, symSize: 0x30 }
  - { offsetInCU: 0x11605, offset: 0x11605, size: 0x8, addend: 0x0, symName: __ZNSt3__14findB7v160006INS_15__list_iteratorI4BookPvEES2_EET_S5_S5_RKT0_, symObjAddr: 0x1CCC, symBinAddr: 0x100003080, symSize: 0x74 }
  - { offsetInCU: 0x1165F, offset: 0x1165F, size: 0x8, addend: 0x0, symName: __ZNSt3__1neB7v160006ERKNS_15__list_iteratorI4BookPvEES5_, symObjAddr: 0x1E84, symBinAddr: 0x100003238, symSize: 0x34 }
  - { offsetInCU: 0x1169C, offset: 0x1169C, size: 0x8, addend: 0x0, symName: __ZNSt3__1rsB7v160006IcNS_11char_traitsIcEEEERNS_13basic_istreamIT_T0_EES7_RS4_, symObjAddr: 0x1FC0, symBinAddr: 0x100003374, symSize: 0x18C }
  - { offsetInCU: 0x1171E, offset: 0x1171E, size: 0x8, addend: 0x0, symName: __ZNSt3__1neB7v160006ERKNS_21__list_const_iteratorI4BookPvEES5_, symObjAddr: 0x2178, symBinAddr: 0x10000352C, symSize: 0x34 }
  - { offsetInCU: 0x1175B, offset: 0x1175B, size: 0x8, addend: 0x0, symName: __ZNSt3__119__debug_db_insert_cB7v160006INS_12basic_stringIcNS_11char_traitsIcEENS_9allocatorIcEEEEEEvPT_, symObjAddr: 0x2308, symBinAddr: 0x1000036BC, symSize: 0x10 }
  - { offsetInCU: 0x1178C, offset: 0x1178C, size: 0x8, addend: 0x0, symName: __ZNSt3__118__constexpr_strlenB7v160006EPKc, symObjAddr: 0x23D4, symBinAddr: 0x100003788, symSize: 0x24 }
  - { offsetInCU: 0x117B8, offset: 0x117B8, size: 0x8, addend: 0x0, symName: __ZNSt3__1eqB7v160006IcNS_11char_traitsIcEEEEbNS_17basic_string_viewIT_T0_EES6_, symObjAddr: 0x2728, symBinAddr: 0x100003ADC, symSize: 0xB0 }
  - { offsetInCU: 0x11807, offset: 0x11807, size: 0x8, addend: 0x0, symName: __ZNSt3__13minB7v160006ImEERKT_S3_S3_, symObjAddr: 0x29B0, symBinAddr: 0x100003D64, symSize: 0x2C }
  - { offsetInCU: 0x1184A, offset: 0x1184A, size: 0x8, addend: 0x0, symName: __ZNSt3__13minB7v160006ImNS_6__lessImmEEEERKT_S5_S5_T0_, symObjAddr: 0x2A60, symBinAddr: 0x100003E14, symSize: 0x54 }
  - { offsetInCU: 0x118DF, offset: 0x118DF, size: 0x8, addend: 0x0, symName: __ZNSt3__118__constexpr_memcmpB7v160006IcEEiPKT_S3_m, symObjAddr: 0x2AE8, symBinAddr: 0x100003E9C, symSize: 0x34 }
  - { offsetInCU: 0x11930, offset: 0x11930, size: 0x8, addend: 0x0, symName: __ZNSt3__112__to_addressB7v160006IKcEEPT_S3_, symObjAddr: 0x2BD4, symBinAddr: 0x100003F88, symSize: 0x14 }
  - { offsetInCU: 0x11998, offset: 0x11998, size: 0x8, addend: 0x0, symName: __ZNSt3__128__char_traits_length_checkedB7v160006INS_11char_traitsIcEEEEmPKNT_9char_typeE, symObjAddr: 0x2E00, symBinAddr: 0x1000041B4, symSize: 0x24 }
  - { offsetInCU: 0x119CD, offset: 0x119CD, size: 0x8, addend: 0x0, symName: __ZNSt3__1ssB7v160006IcNS_11char_traitsIcEEEEDaNS_17basic_string_viewIT_T0_EES7_, symObjAddr: 0x2F48, symBinAddr: 0x1000042FC, symSize: 0x7C }
  - { offsetInCU: 0x11A1C, offset: 0x11A1C, size: 0x8, addend: 0x0, symName: __ZNSt3__118__debug_db_erase_cB7v160006INS_10__list_impI4BookNS_9allocatorIS2_EEEEEEvPT_, symObjAddr: 0x3248, symBinAddr: 0x1000045FC, symSize: 0x10 }
  - { offsetInCU: 0x11A4D, offset: 0x11A4D, size: 0x8, addend: 0x0, symName: __ZNSt3__125__debug_db_invalidate_allB7v160006INS_10__list_impI4BookNS_9allocatorIS2_EEEEEEvPT_, symObjAddr: 0x33DC, symBinAddr: 0x100004790, symSize: 0x10 }
  - { offsetInCU: 0x11AB1, offset: 0x11AB1, size: 0x8, addend: 0x0, symName: __ZNSt3__110destroy_atB7v160006I4BookLi0EEEvPT_, symObjAddr: 0x3508, symBinAddr: 0x1000048BC, symSize: 0x24 }
  - { offsetInCU: 0x11AE8, offset: 0x11AE8, size: 0x8, addend: 0x0, symName: __ZNSt3__112__destroy_atB7v160006I4BookLi0EEEvPT_, symObjAddr: 0x352C, symBinAddr: 0x1000048E0, symSize: 0x24 }
  - { offsetInCU: 0x11B1F, offset: 0x11B1F, size: 0x8, addend: 0x0, symName: __ZNSt3__119__libcpp_deallocateB7v160006EPvmm, symObjAddr: 0x3594, symBinAddr: 0x100004948, symSize: 0x60 }
  - { offsetInCU: 0x11B84, offset: 0x11B84, size: 0x8, addend: 0x0, symName: __ZNSt3__124__is_overaligned_for_newB7v160006Em, symObjAddr: 0x35F4, symBinAddr: 0x1000049A8, symSize: 0x20 }
  - { offsetInCU: 0x11BB2, offset: 0x11BB2, size: 0x8, addend: 0x0, symName: __ZNSt3__127__do_deallocate_handle_sizeB7v160006IJSt11align_val_tEEEvPvmDpT_, symObjAddr: 0x3614, symBinAddr: 0x1000049C8, symSize: 0x30 }
  - { offsetInCU: 0x11C05, offset: 0x11C05, size: 0x8, addend: 0x0, symName: __ZNSt3__127__do_deallocate_handle_sizeB7v160006IJEEEvPvmDpT_, symObjAddr: 0x3644, symBinAddr: 0x1000049F8, symSize: 0x28 }
  - { offsetInCU: 0x11C43, offset: 0x11C43, size: 0x8, addend: 0x0, symName: __ZNSt3__124__libcpp_operator_deleteB7v160006IJPvSt11align_val_tEEEvDpT_, symObjAddr: 0x366C, symBinAddr: 0x100004A20, symSize: 0x2C }
  - { offsetInCU: 0x11C8C, offset: 0x11C8C, size: 0x8, addend: 0x0, symName: __ZNSt3__124__libcpp_operator_deleteB7v160006IJPvEEEvDpT_, symObjAddr: 0x3698, symBinAddr: 0x100004A4C, symSize: 0x24 }
  - { offsetInCU: 0x11CC1, offset: 0x11CC1, size: 0x8, addend: 0x0, symName: __ZNSt3__110__str_findB7v160006IcmNS_11char_traitsIcEELm18446744073709551615EEET0_PKT_S3_S6_S3_S3_, symObjAddr: 0x36DC, symBinAddr: 0x100004A90, symSize: 0xE4 }
  - { offsetInCU: 0x11D68, offset: 0x11D68, size: 0x8, addend: 0x0, symName: __ZNSt3__118__search_substringB7v160006IcNS_11char_traitsIcEEEEPKT_S5_S5_S5_S5_, symObjAddr: 0x37C0, symBinAddr: 0x100004B74, symSize: 0x154 }
  - { offsetInCU: 0x11E02, offset: 0x11E02, size: 0x8, addend: 0x0, symName: __ZNSt3__123__constexpr_char_memchrB7v160006EPKcim, symObjAddr: 0x3984, symBinAddr: 0x100004D38, symSize: 0x34 }
  - { offsetInCU: 0x11E4A, offset: 0x11E4A, size: 0x8, addend: 0x0, symName: __ZNSt3__19use_facetB7v160006INS_5ctypeIcEEEERKT_RKNS_6localeE, symObjAddr: 0x3E18, symBinAddr: 0x1000051CC, symSize: 0x2C }
  - { offsetInCU: 0x12319, offset: 0x12319, size: 0x8, addend: 0x0, symName: __ZNSt3__116__pad_and_outputB7v160006IcNS_11char_traitsIcEEEENS_19ostreambuf_iteratorIT_T0_EES6_PKS4_S8_S8_RNS_8ios_baseES4_, symObjAddr: 0x4084, symBinAddr: 0x100005438, symSize: 0x240 }
  - { offsetInCU: 0x123E8, offset: 0x123E8, size: 0x8, addend: 0x0, symName: __ZNSt3__112__to_addressB7v160006IcEEPT_S2_, symObjAddr: 0x44D0, symBinAddr: 0x100005884, symSize: 0x14 }
  - { offsetInCU: 0x1241D, offset: 0x1241D, size: 0x8, addend: 0x0, symName: __ZNSt3__125__debug_db_invalidate_allB7v160006INS_12basic_stringIcNS_11char_traitsIcEENS_9allocatorIcEEEEEEvPT_, symObjAddr: 0x4B6C, symBinAddr: 0x100005F20, symSize: 0x10 }
  - { offsetInCU: 0x1263A, offset: 0x1263A, size: 0x8, addend: 0x0, symName: __ZNSt3__119__debug_db_insert_cB7v160006INS_4listI4BookNS_9allocatorIS2_EEEEEEvPT_, symObjAddr: 0x4D4C, symBinAddr: 0x100006100, symSize: 0x10 }
  - { offsetInCU: 0x12689, offset: 0x12689, size: 0x8, addend: 0x0, symName: __ZNSt3__117__libcpp_allocateB7v160006Emm, symObjAddr: 0x5270, symBinAddr: 0x100006624, symSize: 0x60 }
  - { offsetInCU: 0x126E3, offset: 0x126E3, size: 0x8, addend: 0x0, symName: __ZNSt3__121__libcpp_operator_newB7v160006IJmSt11align_val_tEEEPvDpT_, symObjAddr: 0x52D0, symBinAddr: 0x100006684, symSize: 0x2C }
  - { offsetInCU: 0x12730, offset: 0x12730, size: 0x8, addend: 0x0, symName: __ZNSt3__121__libcpp_operator_newB7v160006IJmEEEPvDpT_, symObjAddr: 0x52FC, symBinAddr: 0x1000066B0, symSize: 0x24 }
  - { offsetInCU: 0x1278E, offset: 0x1278E, size: 0x8, addend: 0x0, symName: __ZNSt3__112construct_atB7v160006I4BookJS1_EPS1_EEPT_S4_DpOT0_, symObjAddr: 0x5460, symBinAddr: 0x100006814, symSize: 0x3C }
  - { offsetInCU: 0x127FE, offset: 0x127FE, size: 0x8, addend: 0x0, symName: __ZNSt3__115__debug_db_swapB7v160006INS_12basic_stringIcNS_11char_traitsIcEENS_9allocatorIcEEEEEEvPT_S8_, symObjAddr: 0x55F0, symBinAddr: 0x1000069A4, symSize: 0x14 }
  - { offsetInCU: 0x12878, offset: 0x12878, size: 0x8, addend: 0x0, symName: __ZNSt3__14nextB7v160006INS_15__list_iteratorI4BookPvEEEENS_9enable_ifIXsr25__is_cpp17_input_iteratorIT_EE5valueES6_E4typeES6_NS_15iterator_traitsIS6_E15difference_typeE, symObjAddr: 0x5CF0, symBinAddr: 0x1000070A4, symSize: 0x50 }
  - { offsetInCU: 0x128BB, offset: 0x128BB, size: 0x8, addend: 0x0, symName: __ZNSt3__121__convert_to_integralB7v160006El, symObjAddr: 0x5D90, symBinAddr: 0x100007144, symSize: 0x14 }
  - { offsetInCU: 0x128E7, offset: 0x128E7, size: 0x8, addend: 0x0, symName: __ZNSt3__19__advanceB7v160006INS_15__list_iteratorI4BookPvEEEEvRT_NS_15iterator_traitsIS5_E15difference_typeENS_26bidirectional_iterator_tagE, symObjAddr: 0x5DA4, symBinAddr: 0x100007158, symSize: 0xA4 }
  - { offsetInCU: 0x12930, offset: 0x12930, size: 0x8, addend: 0x0, symName: __ZNSt3__112construct_atB7v160006I4BookJRKS1_EPS1_EEPT_S6_DpOT0_, symObjAddr: 0x5E78, symBinAddr: 0x10000722C, symSize: 0x3C }
  - { offsetInCU: 0x129A0, offset: 0x129A0, size: 0x8, addend: 0x0, symName: __ZNSt3__1eqB7v160006ERKNS_21__list_const_iteratorI4BookPvEES5_, symObjAddr: 0x5F94, symBinAddr: 0x100007348, symSize: 0x30 }
  - { offsetInCU: 0x12D2C, offset: 0x12D2C, size: 0x8, addend: 0x0, symName: __ZSt28__throw_bad_array_new_lengthB7v160006v, symObjAddr: 0x523C, symBinAddr: 0x1000065F0, symSize: 0x34 }
  - { offsetInCU: 0x15A25, offset: 0x15A25, size: 0x8, addend: 0x0, symName: _main, symObjAddr: 0x0, symBinAddr: 0x1000013B4, symSize: 0x41C }
  - { offsetInCU: 0x15A63, offset: 0x15A63, size: 0x8, addend: 0x0, symName: __ZNSt3__112basic_stringIcNS_11char_traitsIcEENS_9allocatorIcEEEC1B7v160006IDnEEPKc, symObjAddr: 0x41C, symBinAddr: 0x1000017D0, symSize: 0x34 }
  - { offsetInCU: 0x15AA1, offset: 0x15AA1, size: 0x8, addend: 0x0, symName: __ZN4BookC1ENSt3__112basic_stringIcNS0_11char_traitsIcEENS0_9allocatorIcEEEE, symObjAddr: 0x450, symBinAddr: 0x100001804, symSize: 0x34 }
  - { offsetInCU: 0x15ADA, offset: 0x15ADA, size: 0x8, addend: 0x0, symName: __ZlsRNSt3__113basic_ostreamIcNS_11char_traitsIcEEEERK4Book, symObjAddr: 0x484, symBinAddr: 0x100001838, symSize: 0x94 }
  - { offsetInCU: 0x15B15, offset: 0x15B15, size: 0x8, addend: 0x0, symName: __ZNSt3__113basic_ostreamIcNS_11char_traitsIcEEElsB7v160006EPFRS3_S4_E, symObjAddr: 0x518, symBinAddr: 0x1000018CC, symSize: 0x2C }
  - { offsetInCU: 0x15DC7, offset: 0x15DC7, size: 0x8, addend: 0x0, symName: __ZN7LibraryC1ENSt3__112basic_stringIcNS0_11char_traitsIcEENS0_9allocatorIcEEEE, symObjAddr: 0x59C, symBinAddr: 0x100001950, symSize: 0x34 }
  - { offsetInCU: 0x15E00, offset: 0x15E00, size: 0x8, addend: 0x0, symName: __ZlsRNSt3__113basic_ostreamIcNS_11char_traitsIcEEEERK7Library, symObjAddr: 0x5D0, symBinAddr: 0x100001984, symSize: 0x9C }
  - { offsetInCU: 0x15E5B, offset: 0x15E5B, size: 0x8, addend: 0x0, symName: __ZN7Library7addBookE4Book, symObjAddr: 0x66C, symBinAddr: 0x100001A20, symSize: 0x118 }
  - { offsetInCU: 0x15E91, offset: 0x15E91, size: 0x8, addend: 0x0, symName: __ZN4BookC1ERKS_, symObjAddr: 0x784, symBinAddr: 0x100001B38, symSize: 0x34 }
  - { offsetInCU: 0x15EC6, offset: 0x15EC6, size: 0x8, addend: 0x0, symName: __ZN4BookD1Ev, symObjAddr: 0x7B8, symBinAddr: 0x100001B6C, symSize: 0x2C }
  - { offsetInCU: 0x15EF2, offset: 0x15EF2, size: 0x8, addend: 0x0, symName: __ZN4Book5setIDEl, symObjAddr: 0x7E4, symBinAddr: 0x100001B98, symSize: 0x20 }
  - { offsetInCU: 0x15F27, offset: 0x15F27, size: 0x8, addend: 0x0, symName: __ZN7Library11getUniqueIdEv, symObjAddr: 0x804, symBinAddr: 0x100001BB8, symSize: 0xB4 }
  - { offsetInCU: 0x15F78, offset: 0x15F78, size: 0x8, addend: 0x0, symName: __ZN7Library18showAvailableBooksEv, symObjAddr: 0x900, symBinAddr: 0x100001CB4, symSize: 0xAC }
  - { offsetInCU: 0x15FBB, offset: 0x15FBB, size: 0x8, addend: 0x0, symName: __ZN7Library19findBookAndBorrowItENSt3__112basic_stringIcNS0_11char_traitsIcEENS0_9allocatorIcEEEE, symObjAddr: 0x9AC, symBinAddr: 0x100001D60, symSize: 0x480 }
  - { offsetInCU: 0x160C2, offset: 0x160C2, size: 0x8, addend: 0x0, symName: __ZN7LibraryD1Ev, symObjAddr: 0xE2C, symBinAddr: 0x1000021E0, symSize: 0x2C }
  - { offsetInCU: 0x160EC, offset: 0x160EC, size: 0x8, addend: 0x0, symName: __ZN4BookC2ENSt3__112basic_stringIcNS0_11char_traitsIcEENS0_9allocatorIcEEEE, symObjAddr: 0xE58, symBinAddr: 0x10000220C, symSize: 0x19C }
  - { offsetInCU: 0x16149, offset: 0x16149, size: 0x8, addend: 0x0, symName: __ZNSt3__112basic_stringIcNS_11char_traitsIcEENS_9allocatorIcEEEC1B7v160006Ev, symObjAddr: 0xFF4, symBinAddr: 0x1000023A8, symSize: 0x2C }
  - { offsetInCU: 0x1625C, offset: 0x1625C, size: 0x8, addend: 0x0, symName: __ZNSt3__118basic_stringstreamIcNS_11char_traitsIcEENS_9allocatorIcEEEC1B7v160006ERKNS_12basic_stringIcS2_S4_EEj, symObjAddr: 0x1020, symBinAddr: 0x1000023D4, symSize: 0x110 }
  - { offsetInCU: 0x162A9, offset: 0x162A9, size: 0x8, addend: 0x0, symName: __ZNSt3__118basic_stringstreamIcNS_11char_traitsIcEENS_9allocatorIcEEED1Ev, symObjAddr: 0x13C4, symBinAddr: 0x100002778, symSize: 0x40 }
  - { offsetInCU: 0x162D6, offset: 0x162D6, size: 0x8, addend: 0x0, symName: __ZNK4BookltERKS_, symObjAddr: 0x1404, symBinAddr: 0x1000027B8, symSize: 0x54 }
  - { offsetInCU: 0x1631A, offset: 0x1631A, size: 0x8, addend: 0x0, symName: __ZNSt3__120_CmpUnspecifiedParamC1B7v160006EMS0_i, symObjAddr: 0x14D8, symBinAddr: 0x10000288C, symSize: 0x34 }
  - { offsetInCU: 0x1634E, offset: 0x1634E, size: 0x8, addend: 0x0, symName: __ZNK4BookeqERKS_, symObjAddr: 0x150C, symBinAddr: 0x1000028C0, symSize: 0x30 }
  - { offsetInCU: 0x16383, offset: 0x16383, size: 0x8, addend: 0x0, symName: __ZN4Book5getIDEv, symObjAddr: 0x153C, symBinAddr: 0x1000028F0, symSize: 0x18 }
  - { offsetInCU: 0x163AA, offset: 0x163AA, size: 0x8, addend: 0x0, symName: __ZN4Book13getDostupnostEv, symObjAddr: 0x1554, symBinAddr: 0x100002908, symSize: 0x1C }
  - { offsetInCU: 0x163D1, offset: 0x163D1, size: 0x8, addend: 0x0, symName: __ZN4Book8getNazevEv, symObjAddr: 0x1570, symBinAddr: 0x100002924, symSize: 0x3C }
  - { offsetInCU: 0x163F8, offset: 0x163F8, size: 0x8, addend: 0x0, symName: __ZN4Book13setDostupnostEb, symObjAddr: 0x15AC, symBinAddr: 0x100002960, symSize: 0x2C }
  - { offsetInCU: 0x1642D, offset: 0x1642D, size: 0x8, addend: 0x0, symName: __ZN7LibraryC2ENSt3__112basic_stringIcNS0_11char_traitsIcEENS0_9allocatorIcEEEE, symObjAddr: 0x1624, symBinAddr: 0x1000029D8, symSize: 0x238 }
  - { offsetInCU: 0x16493, offset: 0x16493, size: 0x8, addend: 0x0, symName: __ZNSt3__14listI4BookNS_9allocatorIS1_EEEC1B7v160006Ev, symObjAddr: 0x185C, symBinAddr: 0x100002C10, symSize: 0x2C }
  - { offsetInCU: 0x16558, offset: 0x16558, size: 0x8, addend: 0x0, symName: __ZNSt3__113basic_fstreamIcNS_11char_traitsIcEEEC1Ev, symObjAddr: 0x1888, symBinAddr: 0x100002C3C, symSize: 0x100 }
  - { offsetInCU: 0x16584, offset: 0x16584, size: 0x8, addend: 0x0, symName: __ZNSt3__113basic_fstreamIcNS_11char_traitsIcEEE4openERKNS_12basic_stringIcS2_NS_9allocatorIcEEEEj, symObjAddr: 0x1988, symBinAddr: 0x100002D3C, symSize: 0x84 }
  - { offsetInCU: 0x165CA, offset: 0x165CA, size: 0x8, addend: 0x0, symName: __ZNKSt3__113basic_fstreamIcNS_11char_traitsIcEEE7is_openEv, symObjAddr: 0x1A0C, symBinAddr: 0x100002DC0, symSize: 0x2C }
  - { offsetInCU: 0x165F2, offset: 0x165F2, size: 0x8, addend: 0x0, symName: __ZNKSt3__19basic_iosIcNS_11char_traitsIcEEEcvbB7v160006Ev, symObjAddr: 0x1A94, symBinAddr: 0x100002E48, symSize: 0x2C }
  - { offsetInCU: 0x16618, offset: 0x16618, size: 0x8, addend: 0x0, symName: __ZNSt3__14listI4BookNS_9allocatorIS1_EEE9push_backEOS1_, symObjAddr: 0x1AC0, symBinAddr: 0x100002E74, symSize: 0xF4 }
  - { offsetInCU: 0x1666D, offset: 0x1666D, size: 0x8, addend: 0x0, symName: __ZNSt3__113basic_fstreamIcNS_11char_traitsIcEEE5closeEv, symObjAddr: 0x1BB4, symBinAddr: 0x100002F68, symSize: 0x58 }
  - { offsetInCU: 0x16695, offset: 0x16695, size: 0x8, addend: 0x0, symName: __ZNSt3__14listI4BookNS_9allocatorIS1_EEE4sortEv, symObjAddr: 0x1C0C, symBinAddr: 0x100002FC0, symSize: 0x24 }
  - { offsetInCU: 0x166C2, offset: 0x166C2, size: 0x8, addend: 0x0, symName: __ZNSt3__113basic_fstreamIcNS_11char_traitsIcEEED1Ev, symObjAddr: 0x1C30, symBinAddr: 0x100002FE4, symSize: 0x40 }
  - { offsetInCU: 0x166EE, offset: 0x166EE, size: 0x8, addend: 0x0, symName: __ZNSt3__14listI4BookNS_9allocatorIS1_EEED1Ev, symObjAddr: 0x1C70, symBinAddr: 0x100003024, symSize: 0x2C }
  - { offsetInCU: 0x1671B, offset: 0x1671B, size: 0x8, addend: 0x0, symName: __ZNSt3__14listI4BookNS_9allocatorIS1_EEE5beginB7v160006Ev, symObjAddr: 0x1D40, symBinAddr: 0x1000030F4, symSize: 0x2C }
  - { offsetInCU: 0x16741, offset: 0x16741, size: 0x8, addend: 0x0, symName: __ZNSt3__14listI4BookNS_9allocatorIS1_EEE3endB7v160006Ev, symObjAddr: 0x1D6C, symBinAddr: 0x100003120, symSize: 0x2C }
  - { offsetInCU: 0x16767, offset: 0x16767, size: 0x8, addend: 0x0, symName: __ZNSt3__14listI4BookNS_9allocatorIS1_EEE9push_backERKS1_, symObjAddr: 0x1D98, symBinAddr: 0x10000314C, symSize: 0xEC }
  - { offsetInCU: 0x167BC, offset: 0x167BC, size: 0x8, addend: 0x0, symName: __ZNKSt3__115__list_iteratorI4BookPvEptB7v160006Ev, symObjAddr: 0x1EB8, symBinAddr: 0x10000326C, symSize: 0x30 }
  - { offsetInCU: 0x167E2, offset: 0x167E2, size: 0x8, addend: 0x0, symName: __ZNSt3__115__list_iteratorI4BookPvEppB7v160006Ei, symObjAddr: 0x1EE8, symBinAddr: 0x10000329C, symSize: 0x34 }
  - { offsetInCU: 0x16822, offset: 0x16822, size: 0x8, addend: 0x0, symName: __ZNKSt3__115__list_iteratorI4BookPvEdeB7v160006Ev, symObjAddr: 0x1F1C, symBinAddr: 0x1000032D0, symSize: 0x2C }
  - { offsetInCU: 0x16848, offset: 0x16848, size: 0x8, addend: 0x0, symName: __ZNKSt3__112basic_stringIcNS_11char_traitsIcEENS_9allocatorIcEEE4findB7v160006ERKS5_m, symObjAddr: 0x1F48, symBinAddr: 0x1000032FC, symSize: 0x78 }
  - { offsetInCU: 0x1688E, offset: 0x1688E, size: 0x8, addend: 0x0, symName: __ZNKSt3__14listI4BookNS_9allocatorIS1_EEE5beginB7v160006Ev, symObjAddr: 0x214C, symBinAddr: 0x100003500, symSize: 0x2C }
  - { offsetInCU: 0x168B4, offset: 0x168B4, size: 0x8, addend: 0x0, symName: __ZNKSt3__14listI4BookNS_9allocatorIS1_EEE3endB7v160006Ev, symObjAddr: 0x21AC, symBinAddr: 0x100003560, symSize: 0x2C }
  - { offsetInCU: 0x168DA, offset: 0x168DA, size: 0x8, addend: 0x0, symName: __ZNKSt3__121__list_const_iteratorI4BookPvEdeB7v160006Ev, symObjAddr: 0x21D8, symBinAddr: 0x10000358C, symSize: 0x2C }
  - { offsetInCU: 0x16900, offset: 0x16900, size: 0x8, addend: 0x0, symName: __ZNSt3__121__list_const_iteratorI4BookPvEppB7v160006Ei, symObjAddr: 0x2204, symBinAddr: 0x1000035B8, symSize: 0x34 }
  - { offsetInCU: 0x16940, offset: 0x16940, size: 0x8, addend: 0x0, symName: __ZNSt3__112basic_stringIcNS_11char_traitsIcEENS_9allocatorIcEEEC2B7v160006IDnEEPKc, symObjAddr: 0x2238, symBinAddr: 0x1000035EC, symSize: 0x60 }
  - { offsetInCU: 0x16984, offset: 0x16984, size: 0x8, addend: 0x0, symName: __ZNSt3__117__compressed_pairINS_12basic_stringIcNS_11char_traitsIcEENS_9allocatorIcEEE5__repES5_EC1B7v160006INS_18__default_init_tagESA_EEOT_OT0_, symObjAddr: 0x2298, symBinAddr: 0x10000364C, symSize: 0x3C }
  - { offsetInCU: 0x169DC, offset: 0x169DC, size: 0x8, addend: 0x0, symName: __ZNSt3__111char_traitsIcE6lengthEPKc, symObjAddr: 0x22D4, symBinAddr: 0x100003688, symSize: 0x34 }
  - { offsetInCU: 0x169FF, offset: 0x169FF, size: 0x8, addend: 0x0, symName: __ZNSt3__117__compressed_pairINS_12basic_stringIcNS_11char_traitsIcEENS_9allocatorIcEEE5__repES5_EC2B7v160006INS_18__default_init_tagESA_EEOT_OT0_, symObjAddr: 0x2318, symBinAddr: 0x1000036CC, symSize: 0x3C }
  - { offsetInCU: 0x16A57, offset: 0x16A57, size: 0x8, addend: 0x0, symName: __ZNSt3__122__compressed_pair_elemINS_12basic_stringIcNS_11char_traitsIcEENS_9allocatorIcEEE5__repELi0ELb0EEC2B7v160006ENS_18__default_init_tagE, symObjAddr: 0x2354, symBinAddr: 0x100003708, symSize: 0x14 }
  - { offsetInCU: 0x16A8B, offset: 0x16A8B, size: 0x8, addend: 0x0, symName: __ZNSt3__122__compressed_pair_elemINS_9allocatorIcEELi1ELb1EEC2B7v160006ENS_18__default_init_tagE, symObjAddr: 0x2368, symBinAddr: 0x10000371C, symSize: 0x2C }
  - { offsetInCU: 0x16ABF, offset: 0x16ABF, size: 0x8, addend: 0x0, symName: __ZNSt3__19allocatorIcEC2B7v160006Ev, symObjAddr: 0x2394, symBinAddr: 0x100003748, symSize: 0x2C }
  - { offsetInCU: 0x16AE9, offset: 0x16AE9, size: 0x8, addend: 0x0, symName: __ZNSt3__116__non_trivial_ifILb1ENS_9allocatorIcEEEC2B7v160006Ev, symObjAddr: 0x23C0, symBinAddr: 0x100003774, symSize: 0x14 }
  - { offsetInCU: 0x16B13, offset: 0x16B13, size: 0x8, addend: 0x0, symName: __ZN4BookC2ERKS_, symObjAddr: 0x2404, symBinAddr: 0x1000037B8, symSize: 0x98 }
  - { offsetInCU: 0x16B48, offset: 0x16B48, size: 0x8, addend: 0x0, symName: __ZN4BookD2Ev, symObjAddr: 0x249C, symBinAddr: 0x100003850, symSize: 0x3C }
  - { offsetInCU: 0x16B74, offset: 0x16B74, size: 0x8, addend: 0x0, symName: __ZN7LibraryD2Ev, symObjAddr: 0x24D8, symBinAddr: 0x10000388C, symSize: 0x188 }
  - { offsetInCU: 0x16BD1, offset: 0x16BD1, size: 0x8, addend: 0x0, symName: __ZNSt3__112basic_stringIcNS_11char_traitsIcEENS_9allocatorIcEEEC2B7v160006Ev, symObjAddr: 0x2660, symBinAddr: 0x100003A14, symSize: 0x50 }
  - { offsetInCU: 0x16BFB, offset: 0x16BFB, size: 0x8, addend: 0x0, symName: __ZNSt3__112basic_stringIcNS_11char_traitsIcEENS_9allocatorIcEEE14__default_initB7v160006Ev, symObjAddr: 0x26B0, symBinAddr: 0x100003A64, symSize: 0x40 }
  - { offsetInCU: 0x16C21, offset: 0x16C21, size: 0x8, addend: 0x0, symName: __ZNSt3__117__compressed_pairINS_12basic_stringIcNS_11char_traitsIcEENS_9allocatorIcEEE5__repES5_E5firstB7v160006Ev, symObjAddr: 0x26F0, symBinAddr: 0x100003AA4, symSize: 0x24 }
  - { offsetInCU: 0x16C47, offset: 0x16C47, size: 0x8, addend: 0x0, symName: __ZNSt3__122__compressed_pair_elemINS_12basic_stringIcNS_11char_traitsIcEENS_9allocatorIcEEE5__repELi0ELb0EE5__getB7v160006Ev, symObjAddr: 0x2714, symBinAddr: 0x100003AC8, symSize: 0x14 }
  - { offsetInCU: 0x16C6D, offset: 0x16C6D, size: 0x8, addend: 0x0, symName: __ZNKSt3__112basic_stringIcNS_11char_traitsIcEENS_9allocatorIcEEEcvNS_17basic_string_viewIcS2_EEB7v160006Ev, symObjAddr: 0x27D8, symBinAddr: 0x100003B8C, symSize: 0x50 }
  - { offsetInCU: 0x16C93, offset: 0x16C93, size: 0x8, addend: 0x0, symName: __ZNSt3__117basic_string_viewIcNS_11char_traitsIcEEEC1B7v160006EPKc, symObjAddr: 0x2828, symBinAddr: 0x100003BDC, symSize: 0x34 }
  - { offsetInCU: 0x16CCC, offset: 0x16CCC, size: 0x8, addend: 0x0, symName: __ZNKSt3__117basic_string_viewIcNS_11char_traitsIcEEE4sizeB7v160006Ev, symObjAddr: 0x285C, symBinAddr: 0x100003C10, symSize: 0x18 }
  - { offsetInCU: 0x16CF2, offset: 0x16CF2, size: 0x8, addend: 0x0, symName: __ZNKSt3__117basic_string_viewIcNS_11char_traitsIcEEE7compareES3_, symObjAddr: 0x2874, symBinAddr: 0x100003C28, symSize: 0x13C }
  - { offsetInCU: 0x16D45, offset: 0x16D45, size: 0x8, addend: 0x0, symName: __ZNSt3__111char_traitsIcE7compareEPKcS3_m, symObjAddr: 0x29DC, symBinAddr: 0x100003D90, symSize: 0x6C }
  - { offsetInCU: 0x16D84, offset: 0x16D84, size: 0x8, addend: 0x0, symName: __ZNKSt3__117basic_string_viewIcNS_11char_traitsIcEEE4dataB7v160006Ev, symObjAddr: 0x2A48, symBinAddr: 0x100003DFC, symSize: 0x18 }
  - { offsetInCU: 0x16DB4, offset: 0x16DB4, size: 0x8, addend: 0x0, symName: __ZNKSt3__16__lessImmEclB7v160006ERKmS3_, symObjAddr: 0x2AB4, symBinAddr: 0x100003E68, symSize: 0x34 }
  - { offsetInCU: 0x16DF6, offset: 0x16DF6, size: 0x8, addend: 0x0, symName: __ZNKSt3__112basic_stringIcNS_11char_traitsIcEENS_9allocatorIcEEE4dataB7v160006Ev, symObjAddr: 0x2B1C, symBinAddr: 0x100003ED0, symSize: 0x28 }
  - { offsetInCU: 0x16E1C, offset: 0x16E1C, size: 0x8, addend: 0x0, symName: __ZNKSt3__112basic_stringIcNS_11char_traitsIcEENS_9allocatorIcEEE4sizeB7v160006Ev, symObjAddr: 0x2B44, symBinAddr: 0x100003EF8, symSize: 0x54 }
  - { offsetInCU: 0x16E42, offset: 0x16E42, size: 0x8, addend: 0x0, symName: __ZNSt3__117basic_string_viewIcNS_11char_traitsIcEEEC1B7v160006EPKcm, symObjAddr: 0x2B98, symBinAddr: 0x100003F4C, symSize: 0x3C }
  - { offsetInCU: 0x16E8A, offset: 0x16E8A, size: 0x8, addend: 0x0, symName: __ZNKSt3__112basic_stringIcNS_11char_traitsIcEENS_9allocatorIcEEE13__get_pointerB7v160006Ev, symObjAddr: 0x2BE8, symBinAddr: 0x100003F9C, symSize: 0x54 }
  - { offsetInCU: 0x16EB0, offset: 0x16EB0, size: 0x8, addend: 0x0, symName: __ZNKSt3__112basic_stringIcNS_11char_traitsIcEENS_9allocatorIcEEE9__is_longB7v160006Ev, symObjAddr: 0x2C3C, symBinAddr: 0x100003FF0, symSize: 0x38 }
  - { offsetInCU: 0x16ED6, offset: 0x16ED6, size: 0x8, addend: 0x0, symName: __ZNKSt3__112basic_stringIcNS_11char_traitsIcEENS_9allocatorIcEEE18__get_long_pointerB7v160006Ev, symObjAddr: 0x2C74, symBinAddr: 0x100004028, symSize: 0x28 }
  - { offsetInCU: 0x16EFC, offset: 0x16EFC, size: 0x8, addend: 0x0, symName: __ZNKSt3__112basic_stringIcNS_11char_traitsIcEENS_9allocatorIcEEE19__get_short_pointerB7v160006Ev, symObjAddr: 0x2C9C, symBinAddr: 0x100004050, symSize: 0x28 }
  - { offsetInCU: 0x16F22, offset: 0x16F22, size: 0x8, addend: 0x0, symName: __ZNKSt3__117__compressed_pairINS_12basic_stringIcNS_11char_traitsIcEENS_9allocatorIcEEE5__repES5_E5firstB7v160006Ev, symObjAddr: 0x2CC4, symBinAddr: 0x100004078, symSize: 0x24 }
  - { offsetInCU: 0x16F48, offset: 0x16F48, size: 0x8, addend: 0x0, symName: __ZNKSt3__122__compressed_pair_elemINS_12basic_stringIcNS_11char_traitsIcEENS_9allocatorIcEEE5__repELi0ELb0EE5__getB7v160006Ev, symObjAddr: 0x2CE8, symBinAddr: 0x10000409C, symSize: 0x14 }
  - { offsetInCU: 0x16F6E, offset: 0x16F6E, size: 0x8, addend: 0x0, symName: __ZNSt3__114pointer_traitsIPKcE10pointer_toB7v160006ERS1_, symObjAddr: 0x2CFC, symBinAddr: 0x1000040B0, symSize: 0x14 }
  - { offsetInCU: 0x16F91, offset: 0x16F91, size: 0x8, addend: 0x0, symName: __ZNKSt3__112basic_stringIcNS_11char_traitsIcEENS_9allocatorIcEEE15__get_long_sizeB7v160006Ev, symObjAddr: 0x2D10, symBinAddr: 0x1000040C4, symSize: 0x28 }
  - { offsetInCU: 0x16FB7, offset: 0x16FB7, size: 0x8, addend: 0x0, symName: __ZNKSt3__112basic_stringIcNS_11char_traitsIcEENS_9allocatorIcEEE16__get_short_sizeB7v160006Ev, symObjAddr: 0x2D38, symBinAddr: 0x1000040EC, symSize: 0x34 }
  - { offsetInCU: 0x16FDD, offset: 0x16FDD, size: 0x8, addend: 0x0, symName: __ZNSt3__117basic_string_viewIcNS_11char_traitsIcEEEC2B7v160006EPKcm, symObjAddr: 0x2D6C, symBinAddr: 0x100004120, symSize: 0x50 }
  - { offsetInCU: 0x17025, offset: 0x17025, size: 0x8, addend: 0x0, symName: __ZNSt3__117basic_string_viewIcNS_11char_traitsIcEEEC2B7v160006EPKc, symObjAddr: 0x2DBC, symBinAddr: 0x100004170, symSize: 0x44 }
  - { offsetInCU: 0x1705E, offset: 0x1705E, size: 0x8, addend: 0x0, symName: __ZNSt3__118basic_stringstreamIcNS_11char_traitsIcEENS_9allocatorIcEEED2Ev, symObjAddr: 0x2E24, symBinAddr: 0x1000041D8, symSize: 0x6C }
  - { offsetInCU: 0x17098, offset: 0x17098, size: 0x8, addend: 0x0, symName: __ZThn16_NSt3__118basic_stringstreamIcNS_11char_traitsIcEENS_9allocatorIcEEED1Ev, symObjAddr: 0x2E90, symBinAddr: 0x100004244, symSize: 0x1C }
  - { offsetInCU: 0x170AF, offset: 0x170AF, size: 0x8, addend: 0x0, symName: __ZTv0_n24_NSt3__118basic_stringstreamIcNS_11char_traitsIcEENS_9allocatorIcEEED1Ev, symObjAddr: 0x2EAC, symBinAddr: 0x100004260, symSize: 0x28 }
  - { offsetInCU: 0x170CB, offset: 0x170CB, size: 0x8, addend: 0x0, symName: __ZNSt3__115basic_stringbufIcNS_11char_traitsIcEENS_9allocatorIcEEED1Ev, symObjAddr: 0x2ED4, symBinAddr: 0x100004288, symSize: 0x2C }
  - { offsetInCU: 0x170F8, offset: 0x170F8, size: 0x8, addend: 0x0, symName: __ZNSt3__115basic_stringbufIcNS_11char_traitsIcEENS_9allocatorIcEEED2Ev, symObjAddr: 0x2F00, symBinAddr: 0x1000042B4, symSize: 0x48 }
  - { offsetInCU: 0x17125, offset: 0x17125, size: 0x8, addend: 0x0, symName: __ZNSt3__120_CmpUnspecifiedParamC2B7v160006EMS0_i, symObjAddr: 0x2FC4, symBinAddr: 0x100004378, symSize: 0x18 }
  - { offsetInCU: 0x17159, offset: 0x17159, size: 0x8, addend: 0x0, symName: __ZNSt3__113basic_fstreamIcNS_11char_traitsIcEEED2Ev, symObjAddr: 0x2FDC, symBinAddr: 0x100004390, symSize: 0x6C }
  - { offsetInCU: 0x17192, offset: 0x17192, size: 0x8, addend: 0x0, symName: __ZThn16_NSt3__113basic_fstreamIcNS_11char_traitsIcEEED1Ev, symObjAddr: 0x3048, symBinAddr: 0x1000043FC, symSize: 0x1C }
  - { offsetInCU: 0x171A8, offset: 0x171A8, size: 0x8, addend: 0x0, symName: __ZTv0_n24_NSt3__113basic_fstreamIcNS_11char_traitsIcEEED1Ev, symObjAddr: 0x3064, symBinAddr: 0x100004418, symSize: 0x28 }
  - { offsetInCU: 0x171BE, offset: 0x171BE, size: 0x8, addend: 0x0, symName: __ZNSt3__113basic_fstreamIcNS_11char_traitsIcEEED0Ev, symObjAddr: 0x308C, symBinAddr: 0x100004440, symSize: 0x30 }
  - { offsetInCU: 0x171EA, offset: 0x171EA, size: 0x8, addend: 0x0, symName: __ZThn16_NSt3__113basic_fstreamIcNS_11char_traitsIcEEED0Ev, symObjAddr: 0x30BC, symBinAddr: 0x100004470, symSize: 0x18 }
  - { offsetInCU: 0x17200, offset: 0x17200, size: 0x8, addend: 0x0, symName: __ZTv0_n24_NSt3__113basic_fstreamIcNS_11char_traitsIcEEED0Ev, symObjAddr: 0x30D4, symBinAddr: 0x100004488, symSize: 0x20 }
  - { offsetInCU: 0x17216, offset: 0x17216, size: 0x8, addend: 0x0, symName: __ZNSt3__14listI4BookNS_9allocatorIS1_EEED2Ev, symObjAddr: 0x30F4, symBinAddr: 0x1000044A8, symSize: 0x2C }
  - { offsetInCU: 0x17243, offset: 0x17243, size: 0x8, addend: 0x0, symName: __ZNSt3__110__list_impI4BookNS_9allocatorIS1_EEED2Ev, symObjAddr: 0x3120, symBinAddr: 0x1000044D4, symSize: 0x3C }
  - { offsetInCU: 0x1726F, offset: 0x1726F, size: 0x8, addend: 0x0, symName: __ZNSt3__110__list_impI4BookNS_9allocatorIS1_EEE5clearEv, symObjAddr: 0x315C, symBinAddr: 0x100004510, symSize: 0xEC }
  - { offsetInCU: 0x172DF, offset: 0x172DF, size: 0x8, addend: 0x0, symName: __ZNKSt3__110__list_impI4BookNS_9allocatorIS1_EEE5emptyB7v160006Ev, symObjAddr: 0x3258, symBinAddr: 0x10000460C, symSize: 0x34 }
  - { offsetInCU: 0x17305, offset: 0x17305, size: 0x8, addend: 0x0, symName: __ZNSt3__110__list_impI4BookNS_9allocatorIS1_EEE12__node_allocB7v160006Ev, symObjAddr: 0x328C, symBinAddr: 0x100004640, symSize: 0x28 }
  - { offsetInCU: 0x1732B, offset: 0x1732B, size: 0x8, addend: 0x0, symName: __ZNKSt3__110__list_impI4BookNS_9allocatorIS1_EEE13__end_as_linkB7v160006Ev, symObjAddr: 0x32B4, symBinAddr: 0x100004668, symSize: 0x44 }
  - { offsetInCU: 0x17351, offset: 0x17351, size: 0x8, addend: 0x0, symName: __ZNSt3__110__list_impI4BookNS_9allocatorIS1_EEE14__unlink_nodesEPNS_16__list_node_baseIS1_PvEES8_, symObjAddr: 0x32F8, symBinAddr: 0x1000046AC, symSize: 0x3C }
  - { offsetInCU: 0x17386, offset: 0x17386, size: 0x8, addend: 0x0, symName: __ZNSt3__110__list_impI4BookNS_9allocatorIS1_EEE4__szB7v160006Ev, symObjAddr: 0x3334, symBinAddr: 0x1000046E8, symSize: 0x28 }
  - { offsetInCU: 0x173AC, offset: 0x173AC, size: 0x8, addend: 0x0, symName: __ZNSt3__116__list_node_baseI4BookPvE9__as_nodeB7v160006Ev, symObjAddr: 0x335C, symBinAddr: 0x100004710, symSize: 0x24 }
  - { offsetInCU: 0x173D2, offset: 0x173D2, size: 0x8, addend: 0x0, symName: __ZNSt3__116allocator_traitsINS_9allocatorINS_11__list_nodeI4BookPvEEEEE7destroyB7v160006IS3_vvEEvRS6_PT_, symObjAddr: 0x3380, symBinAddr: 0x100004734, symSize: 0x28 }
  - { offsetInCU: 0x1740C, offset: 0x1740C, size: 0x8, addend: 0x0, symName: __ZNSt3__116allocator_traitsINS_9allocatorINS_11__list_nodeI4BookPvEEEEE10deallocateB7v160006ERS6_PS5_m, symObjAddr: 0x33A8, symBinAddr: 0x10000475C, symSize: 0x34 }
  - { offsetInCU: 0x1744E, offset: 0x1744E, size: 0x8, addend: 0x0, symName: __ZNKSt3__110__list_impI4BookNS_9allocatorIS1_EEE4__szB7v160006Ev, symObjAddr: 0x33EC, symBinAddr: 0x1000047A0, symSize: 0x28 }
  - { offsetInCU: 0x17474, offset: 0x17474, size: 0x8, addend: 0x0, symName: __ZNKSt3__117__compressed_pairImNS_9allocatorINS_11__list_nodeI4BookPvEEEEE5firstB7v160006Ev, symObjAddr: 0x3414, symBinAddr: 0x1000047C8, symSize: 0x24 }
  - { offsetInCU: 0x1749A, offset: 0x1749A, size: 0x8, addend: 0x0, symName: __ZNKSt3__122__compressed_pair_elemImLi0ELb0EE5__getB7v160006Ev, symObjAddr: 0x3438, symBinAddr: 0x1000047EC, symSize: 0x14 }
  - { offsetInCU: 0x174C0, offset: 0x174C0, size: 0x8, addend: 0x0, symName: __ZNSt3__117__compressed_pairImNS_9allocatorINS_11__list_nodeI4BookPvEEEEE6secondB7v160006Ev, symObjAddr: 0x344C, symBinAddr: 0x100004800, symSize: 0x24 }
  - { offsetInCU: 0x174E6, offset: 0x174E6, size: 0x8, addend: 0x0, symName: __ZNSt3__122__compressed_pair_elemINS_9allocatorINS_11__list_nodeI4BookPvEEEELi1ELb1EE5__getB7v160006Ev, symObjAddr: 0x3470, symBinAddr: 0x100004824, symSize: 0x14 }
  - { offsetInCU: 0x1750C, offset: 0x1750C, size: 0x8, addend: 0x0, symName: __ZNSt3__126__list_node_pointer_traitsI4BookPvE26__unsafe_link_pointer_castB7v160006EPNS_16__list_node_baseIS1_S2_EE, symObjAddr: 0x3484, symBinAddr: 0x100004838, symSize: 0x14 }
  - { offsetInCU: 0x17530, offset: 0x17530, size: 0x8, addend: 0x0, symName: __ZNSt3__116__list_node_baseI4BookPvE6__selfB7v160006Ev, symObjAddr: 0x3498, symBinAddr: 0x10000484C, symSize: 0x24 }
  - { offsetInCU: 0x1755B, offset: 0x1755B, size: 0x8, addend: 0x0, symName: __ZNSt3__114pointer_traitsIPNS_16__list_node_baseI4BookPvEEE10pointer_toB7v160006ERS4_, symObjAddr: 0x34BC, symBinAddr: 0x100004870, symSize: 0x14 }
  - { offsetInCU: 0x1757E, offset: 0x1757E, size: 0x8, addend: 0x0, symName: __ZNSt3__117__compressed_pairImNS_9allocatorINS_11__list_nodeI4BookPvEEEEE5firstB7v160006Ev, symObjAddr: 0x34D0, symBinAddr: 0x100004884, symSize: 0x24 }
  - { offsetInCU: 0x175A4, offset: 0x175A4, size: 0x8, addend: 0x0, symName: __ZNSt3__122__compressed_pair_elemImLi0ELb0EE5__getB7v160006Ev, symObjAddr: 0x34F4, symBinAddr: 0x1000048A8, symSize: 0x14 }
  - { offsetInCU: 0x175CA, offset: 0x175CA, size: 0x8, addend: 0x0, symName: __ZNSt3__19allocatorINS_11__list_nodeI4BookPvEEE10deallocateB7v160006EPS4_m, symObjAddr: 0x3550, symBinAddr: 0x100004904, symSize: 0x44 }
  - { offsetInCU: 0x1760C, offset: 0x1760C, size: 0x8, addend: 0x0, symName: __ZNSt3__115__list_iteratorI4BookPvEppB7v160006Ev, symObjAddr: 0x36BC, symBinAddr: 0x100004A70, symSize: 0x20 }
  - { offsetInCU: 0x17632, offset: 0x17632, size: 0x8, addend: 0x0, symName: __ZNSt3__111char_traitsIcE4findEPKcmRS2_, symObjAddr: 0x3914, symBinAddr: 0x100004CC8, symSize: 0x70 }
  - { offsetInCU: 0x17671, offset: 0x17671, size: 0x8, addend: 0x0, symName: __ZNSt3__19basic_iosIcNS_11char_traitsIcEEEC2B7v160006Ev, symObjAddr: 0x39B8, symBinAddr: 0x100004D6C, symSize: 0x44 }
  - { offsetInCU: 0x1769B, offset: 0x1769B, size: 0x8, addend: 0x0, symName: __ZNSt3__114basic_iostreamIcNS_11char_traitsIcEEEC2B7v160006EPNS_15basic_streambufIcS2_EE, symObjAddr: 0x39FC, symBinAddr: 0x100004DB0, symSize: 0xAC }
  - { offsetInCU: 0x176E1, offset: 0x176E1, size: 0x8, addend: 0x0, symName: __ZNSt3__18ios_baseC2B7v160006Ev, symObjAddr: 0x3AA8, symBinAddr: 0x100004E5C, symSize: 0x24 }
  - { offsetInCU: 0x1770B, offset: 0x1770B, size: 0x8, addend: 0x0, symName: __ZNSt3__113basic_istreamIcNS_11char_traitsIcEEEC2B7v160006EPNS_15basic_streambufIcS2_EE, symObjAddr: 0x3ACC, symBinAddr: 0x100004E80, symSize: 0x64 }
  - { offsetInCU: 0x17750, offset: 0x17750, size: 0x8, addend: 0x0, symName: __ZNSt3__113basic_ostreamIcNS_11char_traitsIcEEEC2B7v160006Ev, symObjAddr: 0x3B30, symBinAddr: 0x100004EE4, symSize: 0x34 }
  - { offsetInCU: 0x17787, offset: 0x17787, size: 0x8, addend: 0x0, symName: __ZNSt3__19basic_iosIcNS_11char_traitsIcEEE4initB7v160006EPNS_15basic_streambufIcS2_EE, symObjAddr: 0x3B64, symBinAddr: 0x100004F18, symSize: 0x44 }
  - { offsetInCU: 0x177BE, offset: 0x177BE, size: 0x8, addend: 0x0, symName: __ZNSt3__111char_traitsIcE3eofEv, symObjAddr: 0x3BA8, symBinAddr: 0x100004F5C, symSize: 0x8 }
  - { offsetInCU: 0x177D2, offset: 0x177D2, size: 0x8, addend: 0x0, symName: __ZNSt3__113basic_filebufIcNS_11char_traitsIcEEE4openERKNS_12basic_stringIcS2_NS_9allocatorIcEEEEj, symObjAddr: 0x3BB0, symBinAddr: 0x100004F64, symSize: 0x44 }
  - { offsetInCU: 0x17816, offset: 0x17816, size: 0x8, addend: 0x0, symName: __ZNSt3__19basic_iosIcNS_11char_traitsIcEEE5clearB7v160006Ej, symObjAddr: 0x3BF4, symBinAddr: 0x100004FA8, symSize: 0x2C }
  - { offsetInCU: 0x1784B, offset: 0x1784B, size: 0x8, addend: 0x0, symName: __ZNSt3__19basic_iosIcNS_11char_traitsIcEEE8setstateB7v160006Ej, symObjAddr: 0x3C20, symBinAddr: 0x100004FD4, symSize: 0x2C }
  - { offsetInCU: 0x17880, offset: 0x17880, size: 0x8, addend: 0x0, symName: __ZNKSt3__112basic_stringIcNS_11char_traitsIcEENS_9allocatorIcEEE5c_strB7v160006Ev, symObjAddr: 0x3C4C, symBinAddr: 0x100005000, symSize: 0x24 }
  - { offsetInCU: 0x178A6, offset: 0x178A6, size: 0x8, addend: 0x0, symName: __ZNSt3__18ios_base8setstateB7v160006Ej, symObjAddr: 0x3C70, symBinAddr: 0x100005024, symSize: 0x34 }
  - { offsetInCU: 0x178DD, offset: 0x178DD, size: 0x8, addend: 0x0, symName: __ZNKSt3__113basic_filebufIcNS_11char_traitsIcEEE7is_openEv, symObjAddr: 0x3CA4, symBinAddr: 0x100005058, symSize: 0x24 }
  - { offsetInCU: 0x17905, offset: 0x17905, size: 0x8, addend: 0x0, symName: __ZNSt3__110__list_impI4BookNS_9allocatorIS1_EEE5beginB7v160006Ev, symObjAddr: 0x3CC8, symBinAddr: 0x10000507C, symSize: 0x30 }
  - { offsetInCU: 0x1792B, offset: 0x1792B, size: 0x8, addend: 0x0, symName: __ZNSt3__115__list_iteratorI4BookPvEC1B7v160006EPNS_16__list_node_baseIS1_S2_EEPKv, symObjAddr: 0x3CF8, symBinAddr: 0x1000050AC, symSize: 0x3C }
  - { offsetInCU: 0x17973, offset: 0x17973, size: 0x8, addend: 0x0, symName: __ZNSt3__115__list_iteratorI4BookPvEC2B7v160006EPNS_16__list_node_baseIS1_S2_EEPKv, symObjAddr: 0x3D34, symBinAddr: 0x1000050E8, symSize: 0x24 }
  - { offsetInCU: 0x179BB, offset: 0x179BB, size: 0x8, addend: 0x0, symName: __ZNSt3__110__list_impI4BookNS_9allocatorIS1_EEE3endB7v160006Ev, symObjAddr: 0x3D58, symBinAddr: 0x10000510C, symSize: 0x3C }
  - { offsetInCU: 0x179E1, offset: 0x179E1, size: 0x8, addend: 0x0, symName: __ZNKSt3__19basic_iosIcNS_11char_traitsIcEEE5widenB7v160006Ec, symObjAddr: 0x3D94, symBinAddr: 0x100005148, symSize: 0x84 }
  - { offsetInCU: 0x17A4F, offset: 0x17A4F, size: 0x8, addend: 0x0, symName: __ZNKSt3__15ctypeIcE5widenB7v160006Ec, symObjAddr: 0x3E44, symBinAddr: 0x1000051F8, symSize: 0x38 }
  - { offsetInCU: 0x17AA2, offset: 0x17AA2, size: 0x8, addend: 0x0, symName: __ZNKSt3__113basic_ostreamIcNS_11char_traitsIcEEE6sentrycvbB7v160006Ev, symObjAddr: 0x4068, symBinAddr: 0x10000541C, symSize: 0x1C }
  - { offsetInCU: 0x17AC8, offset: 0x17AC8, size: 0x8, addend: 0x0, symName: __ZNSt3__119ostreambuf_iteratorIcNS_11char_traitsIcEEEC1B7v160006ERNS_13basic_ostreamIcS2_EE, symObjAddr: 0x42C4, symBinAddr: 0x100005678, symSize: 0x34 }
  - { offsetInCU: 0x17B00, offset: 0x17B00, size: 0x8, addend: 0x0, symName: __ZNKSt3__18ios_base5flagsB7v160006Ev, symObjAddr: 0x42F8, symBinAddr: 0x1000056AC, symSize: 0x18 }
  - { offsetInCU: 0x17B28, offset: 0x17B28, size: 0x8, addend: 0x0, symName: __ZNKSt3__19basic_iosIcNS_11char_traitsIcEEE4fillB7v160006Ev, symObjAddr: 0x4310, symBinAddr: 0x1000056C4, symSize: 0x64 }
  - { offsetInCU: 0x17B50, offset: 0x17B50, size: 0x8, addend: 0x0, symName: __ZNKSt3__119ostreambuf_iteratorIcNS_11char_traitsIcEEE6failedB7v160006Ev, symObjAddr: 0x4374, symBinAddr: 0x100005728, symSize: 0x24 }
  - { offsetInCU: 0x17B76, offset: 0x17B76, size: 0x8, addend: 0x0, symName: __ZNKSt3__18ios_base5widthB7v160006Ev, symObjAddr: 0x4398, symBinAddr: 0x10000574C, symSize: 0x18 }
  - { offsetInCU: 0x17B9E, offset: 0x17B9E, size: 0x8, addend: 0x0, symName: __ZNSt3__115basic_streambufIcNS_11char_traitsIcEEE5sputnB7v160006EPKcl, symObjAddr: 0x43B0, symBinAddr: 0x100005764, symSize: 0x3C }
  - { offsetInCU: 0x17BE0, offset: 0x17BE0, size: 0x8, addend: 0x0, symName: __ZNSt3__112basic_stringIcNS_11char_traitsIcEENS_9allocatorIcEEEC1B7v160006Emc, symObjAddr: 0x43EC, symBinAddr: 0x1000057A0, symSize: 0x3C }
  - { offsetInCU: 0x17C28, offset: 0x17C28, size: 0x8, addend: 0x0, symName: __ZNSt3__112basic_stringIcNS_11char_traitsIcEENS_9allocatorIcEEE4dataB7v160006Ev, symObjAddr: 0x4428, symBinAddr: 0x1000057DC, symSize: 0x28 }
  - { offsetInCU: 0x17C4E, offset: 0x17C4E, size: 0x8, addend: 0x0, symName: __ZNSt3__18ios_base5widthB7v160006El, symObjAddr: 0x4450, symBinAddr: 0x100005804, symSize: 0x2C }
  - { offsetInCU: 0x17C94, offset: 0x17C94, size: 0x8, addend: 0x0, symName: __ZNSt3__112basic_stringIcNS_11char_traitsIcEENS_9allocatorIcEEEC2B7v160006Emc, symObjAddr: 0x447C, symBinAddr: 0x100005830, symSize: 0x54 }
  - { offsetInCU: 0x17CDC, offset: 0x17CDC, size: 0x8, addend: 0x0, symName: __ZNSt3__112basic_stringIcNS_11char_traitsIcEENS_9allocatorIcEEE13__get_pointerB7v160006Ev, symObjAddr: 0x44E4, symBinAddr: 0x100005898, symSize: 0x54 }
  - { offsetInCU: 0x17D02, offset: 0x17D02, size: 0x8, addend: 0x0, symName: __ZNSt3__112basic_stringIcNS_11char_traitsIcEENS_9allocatorIcEEE18__get_long_pointerB7v160006Ev, symObjAddr: 0x4538, symBinAddr: 0x1000058EC, symSize: 0x28 }
  - { offsetInCU: 0x17D28, offset: 0x17D28, size: 0x8, addend: 0x0, symName: __ZNSt3__112basic_stringIcNS_11char_traitsIcEENS_9allocatorIcEEE19__get_short_pointerB7v160006Ev, symObjAddr: 0x4560, symBinAddr: 0x100005914, symSize: 0x28 }
  - { offsetInCU: 0x17D4E, offset: 0x17D4E, size: 0x8, addend: 0x0, symName: __ZNSt3__114pointer_traitsIPcE10pointer_toB7v160006ERc, symObjAddr: 0x4588, symBinAddr: 0x10000593C, symSize: 0x14 }
  - { offsetInCU: 0x17D71, offset: 0x17D71, size: 0x8, addend: 0x0, symName: __ZNSt3__119ostreambuf_iteratorIcNS_11char_traitsIcEEEC2B7v160006ERNS_13basic_ostreamIcS2_EE, symObjAddr: 0x459C, symBinAddr: 0x100005950, symSize: 0x54 }
  - { offsetInCU: 0x17DA9, offset: 0x17DA9, size: 0x8, addend: 0x0, symName: __ZNKSt3__19basic_iosIcNS_11char_traitsIcEEE5rdbufB7v160006Ev, symObjAddr: 0x45F0, symBinAddr: 0x1000059A4, symSize: 0x24 }
  - { offsetInCU: 0x17DD1, offset: 0x17DD1, size: 0x8, addend: 0x0, symName: __ZNKSt3__18ios_base5rdbufB7v160006Ev, symObjAddr: 0x4614, symBinAddr: 0x1000059C8, symSize: 0x18 }
  - { offsetInCU: 0x17DF7, offset: 0x17DF7, size: 0x8, addend: 0x0, symName: __ZNSt3__111char_traitsIcE11eq_int_typeEii, symObjAddr: 0x462C, symBinAddr: 0x1000059E0, symSize: 0x28 }
  - { offsetInCU: 0x17E28, offset: 0x17E28, size: 0x8, addend: 0x0, symName: __ZNSt3__115basic_stringbufIcNS_11char_traitsIcEENS_9allocatorIcEEEC1B7v160006ERKNS_12basic_stringIcS2_S4_EEj, symObjAddr: 0x4654, symBinAddr: 0x100005A08, symSize: 0x3C }
  - { offsetInCU: 0x17E6E, offset: 0x17E6E, size: 0x8, addend: 0x0, symName: __ZNSt3__115basic_stringbufIcNS_11char_traitsIcEENS_9allocatorIcEEEC2B7v160006ERKNS_12basic_stringIcS2_S4_EEj, symObjAddr: 0x4690, symBinAddr: 0x100005A44, symSize: 0xB4 }
  - { offsetInCU: 0x17EB4, offset: 0x17EB4, size: 0x8, addend: 0x0, symName: __ZNKSt3__112basic_stringIcNS_11char_traitsIcEENS_9allocatorIcEEE13get_allocatorB7v160006Ev, symObjAddr: 0x4744, symBinAddr: 0x100005AF8, symSize: 0x24 }
  - { offsetInCU: 0x17EDA, offset: 0x17EDA, size: 0x8, addend: 0x0, symName: __ZNSt3__112basic_stringIcNS_11char_traitsIcEENS_9allocatorIcEEEC1B7v160006ERKS4_, symObjAddr: 0x4768, symBinAddr: 0x100005B1C, symSize: 0x34 }
  - { offsetInCU: 0x17F13, offset: 0x17F13, size: 0x8, addend: 0x0, symName: __ZNKSt3__112basic_stringIcNS_11char_traitsIcEENS_9allocatorIcEEE7__allocB7v160006Ev, symObjAddr: 0x479C, symBinAddr: 0x100005B50, symSize: 0x24 }
  - { offsetInCU: 0x17F39, offset: 0x17F39, size: 0x8, addend: 0x0, symName: __ZNKSt3__117__compressed_pairINS_12basic_stringIcNS_11char_traitsIcEENS_9allocatorIcEEE5__repES5_E6secondB7v160006Ev, symObjAddr: 0x47C0, symBinAddr: 0x100005B74, symSize: 0x24 }
  - { offsetInCU: 0x17F5F, offset: 0x17F5F, size: 0x8, addend: 0x0, symName: __ZNKSt3__122__compressed_pair_elemINS_9allocatorIcEELi1ELb1EE5__getB7v160006Ev, symObjAddr: 0x47E4, symBinAddr: 0x100005B98, symSize: 0x14 }
  - { offsetInCU: 0x17F85, offset: 0x17F85, size: 0x8, addend: 0x0, symName: __ZNSt3__112basic_stringIcNS_11char_traitsIcEENS_9allocatorIcEEEC2B7v160006ERKS4_, symObjAddr: 0x47F8, symBinAddr: 0x100005BAC, symSize: 0x50 }
  - { offsetInCU: 0x17FBE, offset: 0x17FBE, size: 0x8, addend: 0x0, symName: __ZNSt3__117__compressed_pairINS_12basic_stringIcNS_11char_traitsIcEENS_9allocatorIcEEE5__repES5_EC1B7v160006INS_18__default_init_tagERKS5_EEOT_OT0_, symObjAddr: 0x4848, symBinAddr: 0x100005BFC, symSize: 0x3C }
  - { offsetInCU: 0x18016, offset: 0x18016, size: 0x8, addend: 0x0, symName: __ZNSt3__117__compressed_pairINS_12basic_stringIcNS_11char_traitsIcEENS_9allocatorIcEEE5__repES5_EC2B7v160006INS_18__default_init_tagERKS5_EEOT_OT0_, symObjAddr: 0x4884, symBinAddr: 0x100005C38, symSize: 0x40 }
  - { offsetInCU: 0x1806E, offset: 0x1806E, size: 0x8, addend: 0x0, symName: __ZNSt3__122__compressed_pair_elemINS_9allocatorIcEELi1ELb1EEC2B7v160006IRKS2_vEEOT_, symObjAddr: 0x48C4, symBinAddr: 0x100005C78, symSize: 0x18 }
  - { offsetInCU: 0x180CE, offset: 0x180CE, size: 0x8, addend: 0x0, symName: __ZNKSt3__113basic_istreamIcNS_11char_traitsIcEEE6sentrycvbB7v160006Ev, symObjAddr: 0x48DC, symBinAddr: 0x100005C90, symSize: 0x1C }
  - { offsetInCU: 0x180F4, offset: 0x180F4, size: 0x8, addend: 0x0, symName: __ZNSt3__112basic_stringIcNS_11char_traitsIcEENS_9allocatorIcEEE5clearB7v160006Ev, symObjAddr: 0x48F8, symBinAddr: 0x100005CAC, symSize: 0x88 }
  - { offsetInCU: 0x1811C, offset: 0x1811C, size: 0x8, addend: 0x0, symName: __ZNSt3__115basic_streambufIcNS_11char_traitsIcEEE6sbumpcB7v160006Ev, symObjAddr: 0x4980, symBinAddr: 0x100005D34, symSize: 0x78 }
  - { offsetInCU: 0x18142, offset: 0x18142, size: 0x8, addend: 0x0, symName: __ZNSt3__111char_traitsIcE12to_char_typeEi, symObjAddr: 0x49F8, symBinAddr: 0x100005DAC, symSize: 0x18 }
  - { offsetInCU: 0x18165, offset: 0x18165, size: 0x8, addend: 0x0, symName: __ZNSt3__111char_traitsIcE2eqEcc, symObjAddr: 0x4A10, symBinAddr: 0x100005DC4, symSize: 0x28 }
  - { offsetInCU: 0x18196, offset: 0x18196, size: 0x8, addend: 0x0, symName: __ZNKSt3__112basic_stringIcNS_11char_traitsIcEENS_9allocatorIcEEE8max_sizeB7v160006Ev, symObjAddr: 0x4A38, symBinAddr: 0x100005DEC, symSize: 0xAC }
  - { offsetInCU: 0x181E8, offset: 0x181E8, size: 0x8, addend: 0x0, symName: __ZNSt3__18ios_base18__setstate_nothrowB7v160006Ej, symObjAddr: 0x4AE4, symBinAddr: 0x100005E98, symSize: 0x64 }
  - { offsetInCU: 0x1821D, offset: 0x1821D, size: 0x8, addend: 0x0, symName: __ZNKSt3__19basic_iosIcNS_11char_traitsIcEEE10exceptionsB7v160006Ev, symObjAddr: 0x4B48, symBinAddr: 0x100005EFC, symSize: 0x24 }
  - { offsetInCU: 0x18243, offset: 0x18243, size: 0x8, addend: 0x0, symName: __ZNSt3__111char_traitsIcE6assignERcRKc, symObjAddr: 0x4B7C, symBinAddr: 0x100005F30, symSize: 0x24 }
  - { offsetInCU: 0x18274, offset: 0x18274, size: 0x8, addend: 0x0, symName: __ZNSt3__112basic_stringIcNS_11char_traitsIcEENS_9allocatorIcEEE15__set_long_sizeB7v160006Em, symObjAddr: 0x4BA0, symBinAddr: 0x100005F54, symSize: 0x38 }
  - { offsetInCU: 0x182A9, offset: 0x182A9, size: 0x8, addend: 0x0, symName: __ZNSt3__112basic_stringIcNS_11char_traitsIcEENS_9allocatorIcEEE16__set_short_sizeB7v160006Em, symObjAddr: 0x4BD8, symBinAddr: 0x100005F8C, symSize: 0x78 }
  - { offsetInCU: 0x182DE, offset: 0x182DE, size: 0x8, addend: 0x0, symName: __ZNSt3__111char_traitsIcE11to_int_typeEc, symObjAddr: 0x4C50, symBinAddr: 0x100006004, symSize: 0x14 }
  - { offsetInCU: 0x1830B, offset: 0x1830B, size: 0x8, addend: 0x0, symName: __ZNSt3__116allocator_traitsINS_9allocatorIcEEE8max_sizeB7v160006IS2_vvEEmRKS2_, symObjAddr: 0x4C64, symBinAddr: 0x100006018, symSize: 0x28 }
  - { offsetInCU: 0x18336, offset: 0x18336, size: 0x8, addend: 0x0, symName: __ZNSt3__114numeric_limitsImE3maxB7v160006Ev, symObjAddr: 0x4C8C, symBinAddr: 0x100006040, symSize: 0x14 }
  - { offsetInCU: 0x1834A, offset: 0x1834A, size: 0x8, addend: 0x0, symName: __ZNSt3__123__libcpp_numeric_limitsImLb1EE3maxB7v160006Ev, symObjAddr: 0x4CA0, symBinAddr: 0x100006054, symSize: 0x8 }
  - { offsetInCU: 0x1835E, offset: 0x1835E, size: 0x8, addend: 0x0, symName: __ZNKSt3__18ios_base10exceptionsB7v160006Ev, symObjAddr: 0x4CA8, symBinAddr: 0x10000605C, symSize: 0x18 }
  - { offsetInCU: 0x18386, offset: 0x18386, size: 0x8, addend: 0x0, symName: __ZNSt3__14listI4BookNS_9allocatorIS1_EEEC2B7v160006Ev, symObjAddr: 0x4CC0, symBinAddr: 0x100006074, symSize: 0x3C }
  - { offsetInCU: 0x183B0, offset: 0x183B0, size: 0x8, addend: 0x0, symName: __ZNSt3__110__list_impI4BookNS_9allocatorIS1_EEEC2Ev, symObjAddr: 0x4CFC, symBinAddr: 0x1000060B0, symSize: 0x50 }
  - { offsetInCU: 0x183DC, offset: 0x183DC, size: 0x8, addend: 0x0, symName: __ZNSt3__116__list_node_baseI4BookPvEC1B7v160006Ev, symObjAddr: 0x4D5C, symBinAddr: 0x100006110, symSize: 0x2C }
  - { offsetInCU: 0x1840C, offset: 0x1840C, size: 0x8, addend: 0x0, symName: __ZNSt3__117__compressed_pairImNS_9allocatorINS_11__list_nodeI4BookPvEEEEEC1B7v160006IiNS_18__default_init_tagEEEOT_OT0_, symObjAddr: 0x4D88, symBinAddr: 0x10000613C, symSize: 0x3C }
  - { offsetInCU: 0x18464, offset: 0x18464, size: 0x8, addend: 0x0, symName: __ZNSt3__116__list_node_baseI4BookPvEC2B7v160006Ev, symObjAddr: 0x4DC4, symBinAddr: 0x100006178, symSize: 0x4C }
  - { offsetInCU: 0x1848E, offset: 0x1848E, size: 0x8, addend: 0x0, symName: __ZNSt3__117__compressed_pairImNS_9allocatorINS_11__list_nodeI4BookPvEEEEEC2B7v160006IiNS_18__default_init_tagEEEOT_OT0_, symObjAddr: 0x4E10, symBinAddr: 0x1000061C4, symSize: 0x40 }
  - { offsetInCU: 0x184E6, offset: 0x184E6, size: 0x8, addend: 0x0, symName: __ZNSt3__122__compressed_pair_elemImLi0ELb0EEC2B7v160006IivEEOT_, symObjAddr: 0x4E50, symBinAddr: 0x100006204, symSize: 0x24 }
  - { offsetInCU: 0x18528, offset: 0x18528, size: 0x8, addend: 0x0, symName: __ZNSt3__122__compressed_pair_elemINS_9allocatorINS_11__list_nodeI4BookPvEEEELi1ELb1EEC2B7v160006ENS_18__default_init_tagE, symObjAddr: 0x4E74, symBinAddr: 0x100006228, symSize: 0x2C }
  - { offsetInCU: 0x1855C, offset: 0x1855C, size: 0x8, addend: 0x0, symName: __ZNSt3__19allocatorINS_11__list_nodeI4BookPvEEEC2B7v160006Ev, symObjAddr: 0x4EA0, symBinAddr: 0x100006254, symSize: 0x2C }
  - { offsetInCU: 0x18586, offset: 0x18586, size: 0x8, addend: 0x0, symName: __ZNSt3__116__non_trivial_ifILb1ENS_9allocatorINS_11__list_nodeI4BookPvEEEEEC2B7v160006Ev, symObjAddr: 0x4ECC, symBinAddr: 0x100006280, symSize: 0x14 }
  - { offsetInCU: 0x185B0, offset: 0x185B0, size: 0x8, addend: 0x0, symName: __ZNKSt3__19basic_iosIcNS_11char_traitsIcEEE4failB7v160006Ev, symObjAddr: 0x4EE0, symBinAddr: 0x100006294, symSize: 0x28 }
  - { offsetInCU: 0x185D6, offset: 0x185D6, size: 0x8, addend: 0x0, symName: __ZNKSt3__18ios_base4failB7v160006Ev, symObjAddr: 0x4F08, symBinAddr: 0x1000062BC, symSize: 0x28 }
  - { offsetInCU: 0x185FE, offset: 0x185FE, size: 0x8, addend: 0x0, symName: __ZNSt3__14listI4BookNS_9allocatorIS1_EEE15__allocate_nodeB7v160006ERNS2_INS_11__list_nodeIS1_PvEEEE, symObjAddr: 0x4F30, symBinAddr: 0x1000062E4, symSize: 0x70 }
  - { offsetInCU: 0x18648, offset: 0x18648, size: 0x8, addend: 0x0, symName: __ZNSt3__116allocator_traitsINS_9allocatorINS_11__list_nodeI4BookPvEEEEE9constructB7v160006IS3_JS3_EvvEEvRS6_PT_DpOT0_, symObjAddr: 0x4FA0, symBinAddr: 0x100006354, symSize: 0x30 }
  - { offsetInCU: 0x1869C, offset: 0x1869C, size: 0x8, addend: 0x0, symName: __ZNKSt3__110unique_ptrINS_11__list_nodeI4BookPvEENS_22__allocator_destructorINS_9allocatorIS4_EEEEEptB7v160006Ev, symObjAddr: 0x4FD0, symBinAddr: 0x100006384, symSize: 0x28 }
  - { offsetInCU: 0x186C2, offset: 0x186C2, size: 0x8, addend: 0x0, symName: __ZNSt3__14listI4BookNS_9allocatorIS1_EEE20__link_nodes_at_backEPNS_16__list_node_baseIS1_PvEES8_, symObjAddr: 0x4FF8, symBinAddr: 0x1000063AC, symSize: 0x60 }
  - { offsetInCU: 0x18708, offset: 0x18708, size: 0x8, addend: 0x0, symName: __ZNKSt3__110unique_ptrINS_11__list_nodeI4BookPvEENS_22__allocator_destructorINS_9allocatorIS4_EEEEE3getB7v160006Ev, symObjAddr: 0x5058, symBinAddr: 0x10000640C, symSize: 0x28 }
  - { offsetInCU: 0x1872E, offset: 0x1872E, size: 0x8, addend: 0x0, symName: __ZNSt3__111__list_nodeI4BookPvE9__as_linkB7v160006Ev, symObjAddr: 0x5080, symBinAddr: 0x100006434, symSize: 0x24 }
  - { offsetInCU: 0x18754, offset: 0x18754, size: 0x8, addend: 0x0, symName: __ZNSt3__110unique_ptrINS_11__list_nodeI4BookPvEENS_22__allocator_destructorINS_9allocatorIS4_EEEEE7releaseB7v160006Ev, symObjAddr: 0x50A4, symBinAddr: 0x100006458, symSize: 0x44 }
  - { offsetInCU: 0x18789, offset: 0x18789, size: 0x8, addend: 0x0, symName: __ZNSt3__110unique_ptrINS_11__list_nodeI4BookPvEENS_22__allocator_destructorINS_9allocatorIS4_EEEEED1B7v160006Ev, symObjAddr: 0x50E8, symBinAddr: 0x10000649C, symSize: 0x2C }
  - { offsetInCU: 0x187B3, offset: 0x187B3, size: 0x8, addend: 0x0, symName: __ZNSt3__116allocator_traitsINS_9allocatorINS_11__list_nodeI4BookPvEEEEE8allocateB7v160006ERS6_m, symObjAddr: 0x5114, symBinAddr: 0x1000064C8, symSize: 0x2C }
  - { offsetInCU: 0x187E6, offset: 0x187E6, size: 0x8, addend: 0x0, symName: __ZNSt3__122__allocator_destructorINS_9allocatorINS_11__list_nodeI4BookPvEEEEEC1B7v160006ERS6_m, symObjAddr: 0x5140, symBinAddr: 0x1000064F4, symSize: 0x3C }
  - { offsetInCU: 0x18832, offset: 0x18832, size: 0x8, addend: 0x0, symName: __ZNSt3__110unique_ptrINS_11__list_nodeI4BookPvEENS_22__allocator_destructorINS_9allocatorIS4_EEEEEC1B7v160006ILb1EvEEPS4_NS_16__dependent_typeINS_27__unique_ptr_deleter_sfinaeIS8_EEXT_EE20__good_rval_ref_typeE, symObjAddr: 0x517C, symBinAddr: 0x100006530, symSize: 0x3C }
  - { offsetInCU: 0x18883, offset: 0x18883, size: 0x8, addend: 0x0, symName: __ZNSt3__19allocatorINS_11__list_nodeI4BookPvEEE8allocateB7v160006Em, symObjAddr: 0x51B8, symBinAddr: 0x10000656C, symSize: 0x5C }
  - { offsetInCU: 0x188C1, offset: 0x188C1, size: 0x8, addend: 0x0, symName: __ZNSt3__116allocator_traitsINS_9allocatorINS_11__list_nodeI4BookPvEEEEE8max_sizeB7v160006IS6_vvEEmRKS6_, symObjAddr: 0x5214, symBinAddr: 0x1000065C8, symSize: 0x28 }
  - { offsetInCU: 0x188EC, offset: 0x188EC, size: 0x8, addend: 0x0, symName: __ZNSt3__122__allocator_destructorINS_9allocatorINS_11__list_nodeI4BookPvEEEEEC2B7v160006ERS6_m, symObjAddr: 0x5320, symBinAddr: 0x1000066D4, symSize: 0x2C }
  - { offsetInCU: 0x18932, offset: 0x18932, size: 0x8, addend: 0x0, symName: __ZNSt3__110unique_ptrINS_11__list_nodeI4BookPvEENS_22__allocator_destructorINS_9allocatorIS4_EEEEEC2B7v160006ILb1EvEEPS4_NS_16__dependent_typeINS_27__unique_ptr_deleter_sfinaeIS8_EEXT_EE20__good_rval_ref_typeE, symObjAddr: 0x534C, symBinAddr: 0x100006700, symSize: 0x48 }
  - { offsetInCU: 0x18983, offset: 0x18983, size: 0x8, addend: 0x0, symName: __ZNSt3__117__compressed_pairIPNS_11__list_nodeI4BookPvEENS_22__allocator_destructorINS_9allocatorIS4_EEEEEC1B7v160006IRS5_S9_EEOT_OT0_, symObjAddr: 0x5394, symBinAddr: 0x100006748, symSize: 0x3C }
  - { offsetInCU: 0x189DB, offset: 0x189DB, size: 0x8, addend: 0x0, symName: __ZNSt3__117__compressed_pairIPNS_11__list_nodeI4BookPvEENS_22__allocator_destructorINS_9allocatorIS4_EEEEEC2B7v160006IRS5_S9_EEOT_OT0_, symObjAddr: 0x53D0, symBinAddr: 0x100006784, symSize: 0x48 }
  - { offsetInCU: 0x18A33, offset: 0x18A33, size: 0x8, addend: 0x0, symName: __ZNSt3__122__compressed_pair_elemIPNS_11__list_nodeI4BookPvEELi0ELb0EEC2B7v160006IRS5_vEEOT_, symObjAddr: 0x5418, symBinAddr: 0x1000067CC, symSize: 0x24 }
  - { offsetInCU: 0x18A75, offset: 0x18A75, size: 0x8, addend: 0x0, symName: __ZNSt3__122__compressed_pair_elemINS_22__allocator_destructorINS_9allocatorINS_11__list_nodeI4BookPvEEEEEELi1ELb0EEC2B7v160006IS8_vEEOT_, symObjAddr: 0x543C, symBinAddr: 0x1000067F0, symSize: 0x24 }
  - { offsetInCU: 0x18AB7, offset: 0x18AB7, size: 0x8, addend: 0x0, symName: __ZN4BookC1EOS_, symObjAddr: 0x549C, symBinAddr: 0x100006850, symSize: 0x34 }
  - { offsetInCU: 0x18AEC, offset: 0x18AEC, size: 0x8, addend: 0x0, symName: __ZN4BookC2EOS_, symObjAddr: 0x54D0, symBinAddr: 0x100006884, symSize: 0x6C }
  - { offsetInCU: 0x18B21, offset: 0x18B21, size: 0x8, addend: 0x0, symName: __ZNSt3__112basic_stringIcNS_11char_traitsIcEENS_9allocatorIcEEEC1B7v160006EOS5_, symObjAddr: 0x553C, symBinAddr: 0x1000068F0, symSize: 0x34 }
  - { offsetInCU: 0x18B5A, offset: 0x18B5A, size: 0x8, addend: 0x0, symName: __ZNSt3__112basic_stringIcNS_11char_traitsIcEENS_9allocatorIcEEEC2B7v160006EOS5_, symObjAddr: 0x5570, symBinAddr: 0x100006924, symSize: 0x80 }
  - { offsetInCU: 0x18B93, offset: 0x18B93, size: 0x8, addend: 0x0, symName: __ZNKSt3__117__compressed_pairIPNS_11__list_nodeI4BookPvEENS_22__allocator_destructorINS_9allocatorIS4_EEEEE5firstB7v160006Ev, symObjAddr: 0x5604, symBinAddr: 0x1000069B8, symSize: 0x24 }
  - { offsetInCU: 0x18BB9, offset: 0x18BB9, size: 0x8, addend: 0x0, symName: __ZNKSt3__122__compressed_pair_elemIPNS_11__list_nodeI4BookPvEELi0ELb0EE5__getB7v160006Ev, symObjAddr: 0x5628, symBinAddr: 0x1000069DC, symSize: 0x14 }
  - { offsetInCU: 0x18BDF, offset: 0x18BDF, size: 0x8, addend: 0x0, symName: __ZNSt3__117__compressed_pairIPNS_11__list_nodeI4BookPvEENS_22__allocator_destructorINS_9allocatorIS4_EEEEE5firstB7v160006Ev, symObjAddr: 0x563C, symBinAddr: 0x1000069F0, symSize: 0x24 }
  - { offsetInCU: 0x18C05, offset: 0x18C05, size: 0x8, addend: 0x0, symName: __ZNSt3__122__compressed_pair_elemIPNS_11__list_nodeI4BookPvEELi0ELb0EE5__getB7v160006Ev, symObjAddr: 0x5660, symBinAddr: 0x100006A14, symSize: 0x14 }
  - { offsetInCU: 0x18C2B, offset: 0x18C2B, size: 0x8, addend: 0x0, symName: __ZNSt3__110unique_ptrINS_11__list_nodeI4BookPvEENS_22__allocator_destructorINS_9allocatorIS4_EEEEED2B7v160006Ev, symObjAddr: 0x5674, symBinAddr: 0x100006A28, symSize: 0x30 }
  - { offsetInCU: 0x18C55, offset: 0x18C55, size: 0x8, addend: 0x0, symName: __ZNSt3__110unique_ptrINS_11__list_nodeI4BookPvEENS_22__allocator_destructorINS_9allocatorIS4_EEEEE5resetB7v160006EPS4_, symObjAddr: 0x56A4, symBinAddr: 0x100006A58, symSize: 0x78 }
  - { offsetInCU: 0x18C99, offset: 0x18C99, size: 0x8, addend: 0x0, symName: __ZNSt3__117__compressed_pairIPNS_11__list_nodeI4BookPvEENS_22__allocator_destructorINS_9allocatorIS4_EEEEE6secondB7v160006Ev, symObjAddr: 0x571C, symBinAddr: 0x100006AD0, symSize: 0x28 }
  - { offsetInCU: 0x18CBF, offset: 0x18CBF, size: 0x8, addend: 0x0, symName: __ZNSt3__122__allocator_destructorINS_9allocatorINS_11__list_nodeI4BookPvEEEEEclB7v160006EPS5_, symObjAddr: 0x5744, symBinAddr: 0x100006AF8, symSize: 0x34 }
  - { offsetInCU: 0x18CF3, offset: 0x18CF3, size: 0x8, addend: 0x0, symName: __ZNSt3__122__compressed_pair_elemINS_22__allocator_destructorINS_9allocatorINS_11__list_nodeI4BookPvEEEEEELi1ELb0EE5__getB7v160006Ev, symObjAddr: 0x5778, symBinAddr: 0x100006B2C, symSize: 0x14 }
  - { offsetInCU: 0x18D23, offset: 0x18D23, size: 0x8, addend: 0x0, symName: __ZNSt3__14listI4BookNS_9allocatorIS1_EEE4sortINS_6__lessIS1_S1_EEEEvT_, symObjAddr: 0x578C, symBinAddr: 0x100006B40, symSize: 0x60 }
  - { offsetInCU: 0x18D68, offset: 0x18D68, size: 0x8, addend: 0x0, symName: __ZNSt3__14listI4BookNS_9allocatorIS1_EEE6__sortINS_6__lessIS1_S1_EEEENS_15__list_iteratorIS1_PvEESA_SA_mRT_, symObjAddr: 0x57EC, symBinAddr: 0x100006BA0, symSize: 0x460 }
  - { offsetInCU: 0x18E9C, offset: 0x18E9C, size: 0x8, addend: 0x0, symName: __ZNKSt3__16__lessI4BookS1_EclB7v160006ERKS1_S4_, symObjAddr: 0x5C4C, symBinAddr: 0x100007000, symSize: 0x34 }
  - { offsetInCU: 0x18EDE, offset: 0x18EDE, size: 0x8, addend: 0x0, symName: __ZNSt3__115__list_iteratorI4BookPvEmmB7v160006Ev, symObjAddr: 0x5C80, symBinAddr: 0x100007034, symSize: 0x20 }
  - { offsetInCU: 0x18F04, offset: 0x18F04, size: 0x8, addend: 0x0, symName: __ZNSt3__14listI4BookNS_9allocatorIS1_EEE12__link_nodesEPNS_16__list_node_baseIS1_PvEES8_S8_, symObjAddr: 0x5CA0, symBinAddr: 0x100007054, symSize: 0x50 }
  - { offsetInCU: 0x18F48, offset: 0x18F48, size: 0x8, addend: 0x0, symName: __ZNSt3__116allocator_traitsINS_9allocatorINS_11__list_nodeI4BookPvEEEEE9constructB7v160006IS3_JRKS3_EvvEEvRS6_PT_DpOT0_, symObjAddr: 0x5E48, symBinAddr: 0x1000071FC, symSize: 0x30 }
  - { offsetInCU: 0x18F9C, offset: 0x18F9C, size: 0x8, addend: 0x0, symName: __ZNSt3__114pointer_traitsIP4BookE10pointer_toB7v160006ERS1_, symObjAddr: 0x5EB4, symBinAddr: 0x100007268, symSize: 0x14 }
  - { offsetInCU: 0x18FBF, offset: 0x18FBF, size: 0x8, addend: 0x0, symName: __ZNKSt3__110__list_impI4BookNS_9allocatorIS1_EEE5beginB7v160006Ev, symObjAddr: 0x5EC8, symBinAddr: 0x10000727C, symSize: 0x30 }
  - { offsetInCU: 0x18FE5, offset: 0x18FE5, size: 0x8, addend: 0x0, symName: __ZNSt3__121__list_const_iteratorI4BookPvEC1B7v160006EPNS_16__list_node_baseIS1_S2_EEPKv, symObjAddr: 0x5EF8, symBinAddr: 0x1000072AC, symSize: 0x3C }
  - { offsetInCU: 0x1902D, offset: 0x1902D, size: 0x8, addend: 0x0, symName: __ZNSt3__121__list_const_iteratorI4BookPvEC2B7v160006EPNS_16__list_node_baseIS1_S2_EEPKv, symObjAddr: 0x5F34, symBinAddr: 0x1000072E8, symSize: 0x24 }
  - { offsetInCU: 0x19075, offset: 0x19075, size: 0x8, addend: 0x0, symName: __ZNKSt3__110__list_impI4BookNS_9allocatorIS1_EEE3endB7v160006Ev, symObjAddr: 0x5F58, symBinAddr: 0x10000730C, symSize: 0x3C }
  - { offsetInCU: 0x1909B, offset: 0x1909B, size: 0x8, addend: 0x0, symName: __ZNSt3__121__list_const_iteratorI4BookPvEppB7v160006Ev, symObjAddr: 0x5FC4, symBinAddr: 0x100007378, symSize: 0x20 }
...
